target datalayout = "e-m:e-p270:32:32-p271:32:32-p272:64:64-i64:64-i128:128-f80:128-n8:16:32:64-S128"
target triple = "x86_64-pc-linux-gnu"

%"struct.boost::json::object::table" = type { i32, i32, i64 }
%"class.boost::json::value" = type { %union.anon.1 }
%union.anon.1 = type { %"class.boost::json::array" }
%"class.boost::json::array" = type { %"class.boost::json::storage_ptr", i8, ptr }
%"class.boost::json::storage_ptr" = type { i64 }
%"class.boost::core::basic_string_view" = type { ptr, i64 }
%"struct.std::pair" = type { ptr, i64 }
%"class.boost::json::object" = type { %"class.boost::json::storage_ptr", i8, ptr }
%"class.boost::json::key_value_pair" = type { %"class.boost::json::value", ptr, i32, i32 }

; Function Attrs: mustprogress nounwind uwtable
define linkonce_odr hidden noundef nonnull align 8 dereferenceable(40) ptr @_ZN5boost4json6object5tableixEm(ptr noundef nonnull align 8 dereferenceable(16) %0, i64 noundef %1) #2 comdat align 2 {
  %3 = alloca ptr, align 8
  %4 = alloca i64, align 8
  store ptr %0, ptr %3, align 8, !tbaa !3
  store i64 %1, ptr %4, align 8, !tbaa !16
  %5 = load ptr, ptr %3, align 8
  %6 = getelementptr inbounds %"struct.boost::json::object::table", ptr %5, i64 1
  %7 = load i64, ptr %4, align 8, !tbaa !16
  %8 = getelementptr inbounds nuw %"class.boost::json::key_value_pair", ptr %6, i64 %7
  ret ptr %8
}

; Function Attrs: inlinehint mustprogress nounwind uwtable
define linkonce_odr hidden noundef ptr @_ZNK5boost4json6object3endEv(ptr noundef nonnull align 8 dereferenceable(24) %0) #1 comdat align 2 {
  %2 = alloca ptr, align 8
  store ptr %0, ptr %2, align 8, !tbaa !3
  %3 = load ptr, ptr %2, align 8
  %4 = getelementptr inbounds nuw %"class.boost::json::object", ptr %3, i32 0, i32 2
  %5 = load ptr, ptr %4, align 8, !tbaa !84
  %6 = getelementptr inbounds nuw %"class.boost::json::object", ptr %3, i32 0, i32 2
  %7 = load ptr, ptr %6, align 8, !tbaa !84
  %8 = getelementptr inbounds nuw %"struct.boost::json::object::table", ptr %7, i32 0, i32 0
  %9 = load i32, ptr %8, align 8, !tbaa !86
  %10 = zext i32 %9 to i64
  %11 = call noundef nonnull align 8 dereferenceable(40) ptr @_ZN5boost4json6object5tableixEm(ptr noundef nonnull align 8 dereferenceable(16) %5, i64 noundef %10) #10
  ret ptr %11
}

; Function Attrs: inlinehint mustprogress nounwind uwtable
define linkonce_odr hidden noundef zeroext i1 @_ZNK5boost4json6object5emptyEv(ptr noundef nonnull align 8 dereferenceable(24) %0) #1 comdat align 2 {
  %2 = alloca ptr, align 8
  store ptr %0, ptr %2, align 8, !tbaa !3
  %3 = load ptr, ptr %2, align 8
  %4 = getelementptr inbounds nuw %"class.boost::json::object", ptr %3, i32 0, i32 2
  %5 = load ptr, ptr %4, align 8, !tbaa !84
  %6 = getelementptr inbounds nuw %"struct.boost::json::object::table", ptr %5, i32 0, i32 0
  %7 = load i32, ptr %6, align 8, !tbaa !86
  %8 = icmp eq i32 %7, 0
  ret i1 %8
}

; Function Attrs: mustprogress nounwind uwtable
define noundef ptr @_ZNK5boost4json6object4findENS_4core17basic_string_viewIcEE(ptr noundef nonnull align 8 dereferenceable(24) %0, ptr %1, i64 %2) #2 align 2 {
  %4 = alloca ptr, align 8
  %5 = alloca %"class.boost::core::basic_string_view", align 8
  %6 = alloca ptr, align 8
  %7 = alloca ptr, align 8
  %8 = alloca %"struct.std::pair", align 8
  %9 = alloca %"class.boost::core::basic_string_view", align 8
  %10 = alloca i32, align 4
  %11 = getelementptr inbounds nuw { ptr, i64 }, ptr %5, i32 0, i32 0
  store ptr %1, ptr %11, align 8
  %12 = getelementptr inbounds nuw { ptr, i64 }, ptr %5, i32 0, i32 1
  store i64 %2, ptr %12, align 8
  store ptr %0, ptr %6, align 8, !tbaa !3
  %13 = load ptr, ptr %6, align 8
  %14 = call noundef zeroext i1 @_ZNK5boost4json6object5emptyEv(ptr noundef nonnull align 8 dereferenceable(24) %13) #10
  br i1 %14, label %15, label %17

15:                                               ; preds = %3
  %16 = call noundef ptr @_ZNK5boost4json6object3endEv(ptr noundef nonnull align 8 dereferenceable(24) %13) #10
  store ptr %16, ptr %4, align 8
  br label %36

17:                                               ; preds = %3
  call void @llvm.lifetime.start.p0(i64 8, ptr %7) #10
  call void @llvm.lifetime.start.p0(i64 16, ptr %8) #10
  call void @llvm.memcpy.p0.p0.i64(ptr align 8 %9, ptr align 8 %5, i64 16, i1 false), !tbaa.struct !47
  %18 = getelementptr inbounds nuw { ptr, i64 }, ptr %9, i32 0, i32 0
  %19 = load ptr, ptr %18, align 8
  %20 = getelementptr inbounds nuw { ptr, i64 }, ptr %9, i32 0, i32 1
  %21 = load i64, ptr %20, align 8
  %22 = call { ptr, i64 } @_ZN5boost4json6detail14find_in_objectINS_4core17basic_string_viewIcEEEESt4pairIPNS0_14key_value_pairEmERKNS0_6objectET_(ptr noundef nonnull align 8 dereferenceable(24) %13, ptr %19, i64 %21) #10
  %23 = getelementptr inbounds nuw { ptr, i64 }, ptr %8, i32 0, i32 0
  %24 = extractvalue { ptr, i64 } %22, 0
  store ptr %24, ptr %23, align 8
  %25 = getelementptr inbounds nuw { ptr, i64 }, ptr %8, i32 0, i32 1
  %26 = extractvalue { ptr, i64 } %22, 1
  store i64 %26, ptr %25, align 8
  %27 = getelementptr inbounds nuw %"struct.std::pair", ptr %8, i32 0, i32 0
  %28 = load ptr, ptr %27, align 8, !tbaa !94
  call void @llvm.lifetime.end.p0(i64 16, ptr %8) #10
  store ptr %28, ptr %7, align 8, !tbaa !3
  %29 = load ptr, ptr %7, align 8, !tbaa !3
  %30 = icmp ne ptr %29, null
  br i1 %30, label %31, label %33

31:                                               ; preds = %17
  %32 = load ptr, ptr %7, align 8, !tbaa !3
  store ptr %32, ptr %4, align 8
  store i32 1, ptr %10, align 4
  br label %35

33:                                               ; preds = %17
  %34 = call noundef ptr @_ZNK5boost4json6object3endEv(ptr noundef nonnull align 8 dereferenceable(24) %13) #10
  store ptr %34, ptr %4, align 8
  store i32 1, ptr %10, align 4
  br label %35

35:                                               ; preds = %33, %31
  call void @llvm.lifetime.end.p0(i64 8, ptr %7) #10
  br label %36

36:                                               ; preds = %35, %15
  %37 = load ptr, ptr %4, align 8
  ret ptr %37
}