; Function Attrs: mustprogress nounwind uwtable
define noundef ptr @_ZNK5boost4json6object4findENS_4core17basic_string_viewIcEE(ptr noundef nonnull align 8 dereferenceable(24) %0, ptr %1, i64 %2) local_unnamed_addr #7 align 2 {
  %4 = getelementptr inbounds nuw i8, ptr %0, i64 16
  %5 = load ptr, ptr %4, align 8, !tbaa !102
  %6 = load i32, ptr %5, align 8, !tbaa !106
  %7 = icmp eq i32 %6, 0
  br i1 %7, label %8, label %10

8:                                                ; preds = %3
  %9 = getelementptr inbounds i8, ptr %5, i64 16
  br label %19

10:                                               ; preds = %3
  %11 = tail call { ptr, i64 } @_ZN5boost4json6detail14find_in_objectINS_4core17basic_string_viewIcEEEESt4pairIPNS0_14key_value_pairEmERKNS0_6objectET_(ptr noundef nonnull align 8 dereferenceable(24) %0, ptr %1, i64 %2) #48
  %12 = extractvalue { ptr, i64 } %11, 0
  %.not = icmp eq ptr %12, null
  br i1 %.not, label %13, label %19

13:                                               ; preds = %10
  %14 = load ptr, ptr %4, align 8, !tbaa !102
  %15 = load i32, ptr %14, align 8, !tbaa !106
  %16 = zext i32 %15 to i64
  %17 = getelementptr inbounds i8, ptr %14, i64 16
  %18 = getelementptr inbounds nuw %"class.boost::json::key_value_pair", ptr %17, i64 %16
  br label %19

19:                                               ; preds = %13, %10, %8
  %.0 = phi ptr [ %9, %8 ], [ %18, %13 ], [ %12, %10 ]
  ret ptr %.0
}